; Function Attrs: nounwind uwtable
define dso_local void @PopActiveSnapshot() local_unnamed_addr #0 {
  %1 = load ptr, ptr @ActiveSnapshot, align 8
  %2 = getelementptr inbounds nuw i8, ptr %1, i64 16
  %3 = load ptr, ptr %2, align 8
  %4 = load ptr, ptr %1, align 8
  %5 = getelementptr inbounds nuw i8, ptr %4, i64 64
  %6 = load i32, ptr %5, align 8
  %7 = add i32 %6, -1
  store i32 %7, ptr %5, align 8
  %8 = load ptr, ptr %1, align 8
  %9 = getelementptr inbounds nuw i8, ptr %8, i64 64
  %10 = load i32, ptr %9, align 8
  %11 = icmp eq i32 %10, 0
  br i1 %11, label %12, label %17

12:                                               ; preds = %0
  %13 = getelementptr inbounds nuw i8, ptr %8, i64 68
  %14 = load i32, ptr %13, align 4
  %15 = icmp eq i32 %14, 0
  br i1 %15, label %16, label %17

16:                                               ; preds = %12
  tail call void @pfree(ptr noundef nonnull %8) #18
  %.pre = load ptr, ptr @ActiveSnapshot, align 8
  br label %17

17:                                               ; preds = %16, %12, %0
  %18 = phi ptr [ %.pre, %16 ], [ %1, %12 ], [ %1, %0 ]
  tail call void @pfree(ptr noundef %18) #18
  store ptr %3, ptr @ActiveSnapshot, align 8
  %.not.i = icmp eq ptr %3, null
  br i1 %.not.i, label %19, label %SnapshotResetXmin.exit

19:                                               ; preds = %17
  %20 = load ptr, ptr getelementptr inbounds nuw (i8, ptr @RegisteredSnapshots, i64 16), align 8
  %21 = icmp eq ptr %20, null
  br i1 %21, label %.sink.split.i, label %22

22:                                               ; preds = %19
  %23 = tail call ptr @pairingheap_first(ptr noundef nonnull @RegisteredSnapshots) #18
  %24 = load ptr, ptr @MyProc, align 8
  %25 = getelementptr inbounds nuw i8, ptr %24, i64 56
  %26 = load i32, ptr %25, align 8
  %27 = getelementptr inbounds i8, ptr %23, i64 -68
  %28 = load i32, ptr %27, align 4
  %29 = tail call zeroext i1 @TransactionIdPrecedes(i32 noundef %26, i32 noundef %28) #18
  br i1 %29, label %30, label %SnapshotResetXmin.exit

30:                                               ; preds = %22
  %31 = load i32, ptr %27, align 4
  br label %.sink.split.i

.sink.split.i:                                    ; preds = %30, %19
  %.sink4.i = phi i32 [ %31, %30 ], [ 0, %19 ]
  store i32 %.sink4.i, ptr @TransactionXmin, align 4
  %32 = load ptr, ptr @MyProc, align 8
  %33 = getelementptr inbounds nuw i8, ptr %32, i64 56
  store i32 %.sink4.i, ptr %33, align 8
  br label %SnapshotResetXmin.exit

SnapshotResetXmin.exit:                           ; preds = %17, %22, %.sink.split.i
  ret void
}